target datalayout = "e-m:e-p270:32:32-p271:32:32-p272:64:64-i64:64-i128:128-f80:128-n8:16:32:64-S128"
target triple = "x86_64-pc-linux-gnu"

%struct.AVFormatContext = type { ptr, ptr, ptr, ptr, ptr, i32, i32, ptr, i32, ptr, i32, ptr, ptr, i64, i64, i64, i32, i32, i32, i64, i64, ptr, i32, i32, ptr, i32, i32, i32, i32, ptr, i64, i32, i32, %struct.AVIOInterruptCB, i32, i32, i32, i32, i64, i32, i32, i32, i32, i32, i32, i32, i32, i32, i32, i32, i32, i64, i32, i32, i32, i32, i32, ptr, ptr, ptr, ptr, i32, ptr, ptr, ptr, ptr, i32, ptr, ptr, i64, ptr, ptr, ptr, i64 }
%struct.AVIOInterruptCB = type { ptr, ptr }
%struct.AVPacket = type { ptr, i64, i64, ptr, i32, i32, i32, ptr, i32, i64, i64, ptr, ptr, %struct.AVRational }
%struct.AVRational = type { i32, i32 }
%struct.TtyDemuxContext = type { ptr, i32, i64, i32, i32, %struct.AVRational }

; Function Attrs: alwaysinline nounwind uwtable
define internal i64 @avio_tell(ptr noundef %0) #5 {
  %2 = alloca ptr, align 8
  store ptr %0, ptr %2, align 8, !tbaa !77
  %3 = load ptr, ptr %2, align 8, !tbaa !77
  %4 = call i64 @avio_seek(ptr noundef %3, i64 noundef 0, i32 noundef 1)
  ret i64 %4
}

; Function Attrs: nounwind uwtable
define internal i32 @read_packet(ptr noundef %0, ptr noundef %1) #0 {
  %3 = alloca i32, align 4
  %4 = alloca ptr, align 8
  %5 = alloca ptr, align 8
  %6 = alloca ptr, align 8
  %7 = alloca i32, align 4
  %8 = alloca i32, align 4
  %9 = alloca i64, align 8
  store ptr %0, ptr %4, align 8, !tbaa !20
  store ptr %1, ptr %5, align 8, !tbaa !68
  call void @llvm.lifetime.start.p0(i64 8, ptr %6) #6
  %10 = load ptr, ptr %4, align 8, !tbaa !20
  %11 = getelementptr inbounds nuw %struct.AVFormatContext, ptr %10, i32 0, i32 3
  %12 = load ptr, ptr %11, align 8, !tbaa !22
  store ptr %12, ptr %6, align 8, !tbaa !37
  call void @llvm.lifetime.start.p0(i64 4, ptr %7) #6
  %13 = load ptr, ptr %4, align 8, !tbaa !20
  %14 = getelementptr inbounds nuw %struct.AVFormatContext, ptr %13, i32 0, i32 4
  %15 = load ptr, ptr %14, align 8, !tbaa !62
  %16 = call i32 @avio_feof(ptr noundef %15)
  %17 = icmp ne i32 %16, 0
  br i1 %17, label %18, label %19

18:                                               ; preds = %2
  store i32 -541478725, ptr %3, align 4
  store i32 1, ptr %8, align 4
  br label %94

19:                                               ; preds = %2
  %20 = load ptr, ptr %6, align 8, !tbaa !37
  %21 = getelementptr inbounds nuw %struct.TtyDemuxContext, ptr %20, i32 0, i32 1
  %22 = load i32, ptr %21, align 8, !tbaa !61
  store i32 %22, ptr %7, align 4, !tbaa !9
  %23 = load ptr, ptr %6, align 8, !tbaa !37
  %24 = getelementptr inbounds nuw %struct.TtyDemuxContext, ptr %23, i32 0, i32 2
  %25 = load i64, ptr %24, align 8, !tbaa !66
  %26 = icmp ne i64 %25, 0
  br i1 %26, label %27, label %60

27:                                               ; preds = %19
  call void @llvm.lifetime.start.p0(i64 8, ptr %9) #6
  %28 = load ptr, ptr %4, align 8, !tbaa !20
  %29 = getelementptr inbounds nuw %struct.AVFormatContext, ptr %28, i32 0, i32 4
  %30 = load ptr, ptr %29, align 8, !tbaa !62
  %31 = call i64 @avio_tell(ptr noundef %30)
  store i64 %31, ptr %9, align 8, !tbaa !65
  %32 = load i64, ptr %9, align 8, !tbaa !65
  %33 = load ptr, ptr %6, align 8, !tbaa !37
  %34 = getelementptr inbounds nuw %struct.TtyDemuxContext, ptr %33, i32 0, i32 2
  %35 = load i64, ptr %34, align 8, !tbaa !66
  %36 = icmp eq i64 %32, %35
  br i1 %36, label %37, label %38

37:                                               ; preds = %27
  store i32 -541478725, ptr %3, align 4
  store i32 1, ptr %8, align 4
  br label %57

38:                                               ; preds = %27
  %39 = load i64, ptr %9, align 8, !tbaa !65
  %40 = load ptr, ptr %6, align 8, !tbaa !37
  %41 = getelementptr inbounds nuw %struct.TtyDemuxContext, ptr %40, i32 0, i32 1
  %42 = load i32, ptr %41, align 8, !tbaa !61
  %43 = sext i32 %42 to i64
  %44 = add i64 %39, %43
  %45 = load ptr, ptr %6, align 8, !tbaa !37
  %46 = getelementptr inbounds nuw %struct.TtyDemuxContext, ptr %45, i32 0, i32 2
  %47 = load i64, ptr %46, align 8, !tbaa !66
  %48 = icmp ugt i64 %44, %47
  br i1 %48, label %49, label %56

49:                                               ; preds = %38
  %50 = load ptr, ptr %6, align 8, !tbaa !37
  %51 = getelementptr inbounds nuw %struct.TtyDemuxContext, ptr %50, i32 0, i32 2
  %52 = load i64, ptr %51, align 8, !tbaa !66
  %53 = load i64, ptr %9, align 8, !tbaa !65
  %54 = sub i64 %52, %53
  %55 = trunc i64 %54 to i32
  store i32 %55, ptr %7, align 4, !tbaa !9
  br label %56

56:                                               ; preds = %49, %38
  store i32 0, ptr %8, align 4
  br label %57

57:                                               ; preds = %56, %37
  call void @llvm.lifetime.end.p0(i64 8, ptr %9) #6
  %58 = load i32, ptr %8, align 4
  switch i32 %58, label %94 [
    i32 0, label %59
  ]

59:                                               ; preds = %57
  br label %60

60:                                               ; preds = %59, %19
  %61 = load ptr, ptr %4, align 8, !tbaa !20
  %62 = getelementptr inbounds nuw %struct.AVFormatContext, ptr %61, i32 0, i32 4
  %63 = load ptr, ptr %62, align 8, !tbaa !62
  %64 = load ptr, ptr %5, align 8, !tbaa !68
  %65 = load i32, ptr %7, align 4, !tbaa !9
  %66 = call i32 @av_get_packet(ptr noundef %63, ptr noundef %64, i32 noundef %65)
  %67 = load ptr, ptr %5, align 8, !tbaa !68
  %68 = getelementptr inbounds nuw %struct.AVPacket, ptr %67, i32 0, i32 4
  store i32 %66, ptr %68, align 8, !tbaa !70
  %69 = load ptr, ptr %5, align 8, !tbaa !68
  %70 = getelementptr inbounds nuw %struct.AVPacket, ptr %69, i32 0, i32 4
  %71 = load i32, ptr %70, align 8, !tbaa !70
  %72 = icmp slt i32 %71, 0
  br i1 %72, label %73, label %77

73:                                               ; preds = %60
  %74 = load ptr, ptr %5, align 8, !tbaa !68
  %75 = getelementptr inbounds nuw %struct.AVPacket, ptr %74, i32 0, i32 4
  %76 = load i32, ptr %75, align 8, !tbaa !70
  store i32 %76, ptr %3, align 4
  store i32 1, ptr %8, align 4
  br label %94

77:                                               ; preds = %60
  %78 = load ptr, ptr %5, align 8, !tbaa !68
  %79 = getelementptr inbounds nuw %struct.AVPacket, ptr %78, i32 0, i32 5
  store i32 0, ptr %79, align 4, !tbaa !71
  %80 = load ptr, ptr %5, align 8, !tbaa !68
  %81 = getelementptr inbounds nuw %struct.AVPacket, ptr %80, i32 0, i32 10
  %82 = load i64, ptr %81, align 8, !tbaa !72
  %83 = load ptr, ptr %6, align 8, !tbaa !37
  %84 = getelementptr inbounds nuw %struct.TtyDemuxContext, ptr %83, i32 0, i32 1
  %85 = load i32, ptr %84, align 8, !tbaa !61
  %86 = sext i32 %85 to i64
  %87 = sdiv i64 %82, %86
  %88 = load ptr, ptr %5, align 8, !tbaa !68
  %89 = getelementptr inbounds nuw %struct.AVPacket, ptr %88, i32 0, i32 1
  store i64 %87, ptr %89, align 8, !tbaa !73
  %90 = load ptr, ptr %5, align 8, !tbaa !68
  %91 = getelementptr inbounds nuw %struct.AVPacket, ptr %90, i32 0, i32 6
  %92 = load i32, ptr %91, align 8, !tbaa !74
  %93 = or i32 %92, 1
  store i32 %93, ptr %91, align 8, !tbaa !74
  store i32 0, ptr %3, align 4
  store i32 1, ptr %8, align 4
  br label %94

94:                                               ; preds = %77, %73, %57, %18
  call void @llvm.lifetime.end.p0(i64 4, ptr %7) #6
  call void @llvm.lifetime.end.p0(i64 8, ptr %6) #6
  %95 = load i32, ptr %3, align 4
  ret i32 %95
}