; Function Attrs: nounwind uwtable
define internal range(i32 -2147483648, 1) i32 @read_packet(ptr noundef readonly captures(none) %0, ptr noundef %1) #0 {
  %3 = getelementptr inbounds nuw i8, ptr %0, i64 24
  %4 = load ptr, ptr %3, align 8, !tbaa !17
  %5 = getelementptr inbounds nuw i8, ptr %0, i64 32
  %6 = load ptr, ptr %5, align 8, !tbaa !52
  %7 = tail call i32 @avio_feof(ptr noundef %6) #4
  %.not = icmp eq i32 %7, 0
  br i1 %.not, label %8, label %.thread

8:                                                ; preds = %2
  %9 = getelementptr inbounds nuw i8, ptr %4, i64 8
  %10 = load i32, ptr %9, align 8, !tbaa !51
  %11 = getelementptr inbounds nuw i8, ptr %4, i64 16
  %12 = load i64, ptr %11, align 8, !tbaa !55
  %.not30 = icmp eq i64 %12, 0
  br i1 %.not30, label %24, label %13

13:                                               ; preds = %8
  %14 = load ptr, ptr %5, align 8, !tbaa !52
  %15 = tail call i64 @avio_seek(ptr noundef %14, i64 noundef 0, i32 noundef 1) #4
  %16 = load i64, ptr %11, align 8, !tbaa !55
  %.not31 = icmp eq i64 %15, %16
  br i1 %.not31, label %.thread, label %17

17:                                               ; preds = %13
  %18 = load i32, ptr %9, align 8, !tbaa !51
  %19 = sext i32 %18 to i64
  %20 = add i64 %15, %19
  %21 = icmp ugt i64 %20, %16
  %22 = sub i64 %16, %15
  %23 = trunc i64 %22 to i32
  %.2 = select i1 %21, i32 %23, i32 %10
  br label %24

24:                                               ; preds = %17, %8
  %.025 = phi i32 [ %.2, %17 ], [ %10, %8 ]
  %25 = load ptr, ptr %5, align 8, !tbaa !52
  %26 = tail call i32 @av_get_packet(ptr noundef %25, ptr noundef %1, i32 noundef %.025) #4
  %27 = getelementptr inbounds nuw i8, ptr %1, i64 32
  store i32 %26, ptr %27, align 8, !tbaa !57
  %28 = icmp slt i32 %26, 0
  br i1 %28, label %.thread, label %29

29:                                               ; preds = %24
  %30 = getelementptr inbounds nuw i8, ptr %1, i64 36
  store i32 0, ptr %30, align 4, !tbaa !58
  %31 = getelementptr inbounds nuw i8, ptr %1, i64 72
  %32 = load i64, ptr %31, align 8, !tbaa !59
  %33 = load i32, ptr %9, align 8, !tbaa !51
  %34 = sext i32 %33 to i64
  %35 = sdiv i64 %32, %34
  %36 = getelementptr inbounds nuw i8, ptr %1, i64 8
  store i64 %35, ptr %36, align 8, !tbaa !60
  %37 = getelementptr inbounds nuw i8, ptr %1, i64 40
  %38 = load i32, ptr %37, align 8, !tbaa !61
  %39 = or i32 %38, 1
  store i32 %39, ptr %37, align 8, !tbaa !61
  br label %.thread

.thread:                                          ; preds = %13, %24, %2, %29
  %.0 = phi i32 [ 0, %29 ], [ -541478725, %2 ], [ %26, %24 ], [ -541478725, %13 ]
  ret i32 %.0
}